(lp0
S'poi'
p1
aS'bonus'
p2
aS'deferral_payments'
p3
aS'deferred_income'
p4
aS'director_fees'
p5
aS'exercised_stock_options'
p6
aS'expenses'
p7
aS'from_messages'
p8
aS'long_term_incentive'
p9
aS'other'
p10
aS'restricted_stock'
p11
aS'restricted_stock_deferred'
p12
aS'salary'
p13
aS'to_messages'
p14
aS'total_payments'
p15
aS'total_stock_value'
p16
a.